; ModuleID = 'source-C-CXX/12/274.c'
source_filename = "source-C-CXX/12/274.c"
target datalayout = "e-m:e-p270:32:32-p271:32:32-p272:64:64-i64:64-f80:128-n8:16:32:64-S128"
target triple = "x86_64-pc-linux-gnu"

@.str = private unnamed_addr constant [3 x i8] c"%d\00", align 1

; Function Attrs: nofree nounwind sspstrong uwtable
define dso_local i32 @main() local_unnamed_addr #0 {
  %1 = alloca [20000 x i32], align 16
  %2 = alloca [20000 x i32], align 16
  %3 = alloca i32, align 4
  %4 = bitcast [20000 x i32]* %1 to i8*
  call void @llvm.lifetime.start.p0i8(i64 80000, i8* nonnull %4) #4
  %5 = bitcast [20000 x i32]* %2 to i8*
  call void @llvm.lifetime.start.p0i8(i64 80000, i8* nonnull %5) #4
  %6 = bitcast i32* %3 to i8*
  call void @llvm.lifetime.start.p0i8(i64 4, i8* nonnull %6) #4
  %7 = call i32 (i8*, ...) @__isoc99_scanf(i8* getelementptr inbounds ([3 x i8], [3 x i8]* @.str, i64 0, i64 0), i32* nonnull %3)
  %8 = load i32, i32* %3, align 4, !tbaa !5
  %9 = icmp sgt i32 %8, 0
  br i1 %9, label %15, label %53

10:                                               ; preds = %35
  %11 = icmp sgt i32 %36, 0
  br i1 %11, label %12, label %53

12:                                               ; preds = %10
  %13 = zext i32 %36 to i64
  %14 = zext i32 %37 to i64
  br label %42

15:                                               ; preds = %0, %35
  %16 = phi i64 [ %38, %35 ], [ 0, %0 ]
  %17 = phi i32 [ %37, %35 ], [ 1, %0 ]
  %18 = getelementptr inbounds [20000 x i32], [20000 x i32]* %1, i64 0, i64 %16
  %19 = call i32 (i8*, ...) @__isoc99_scanf(i8* getelementptr inbounds ([3 x i8], [3 x i8]* @.str, i64 0, i64 0), i32* nonnull %18)
  %20 = load i32, i32* %18, align 4, !tbaa !5
  %21 = sext i32 %17 to i64
  %22 = getelementptr inbounds [20000 x i32], [20000 x i32]* %2, i64 0, i64 %21
  store i32 %20, i32* %22, align 4, !tbaa !5
  %23 = icmp sgt i32 %17, 1
  br i1 %23, label %24, label %35

24:                                               ; preds = %15, %24
  %25 = phi i64 [ %32, %24 ], [ 1, %15 ]
  %26 = phi i32 [ %31, %24 ], [ %17, %15 ]
  %27 = getelementptr inbounds [20000 x i32], [20000 x i32]* %2, i64 0, i64 %25
  %28 = load i32, i32* %27, align 4, !tbaa !5
  %29 = icmp eq i32 %20, %28
  %30 = sext i1 %29 to i32
  %31 = add nsw i32 %26, %30
  %32 = add nuw nsw i64 %25, 1
  %33 = sext i32 %31 to i64
  %34 = icmp slt i64 %32, %33
  br i1 %34, label %24, label %35, !llvm.loop !9

35:                                               ; preds = %24, %15
  %36 = phi i32 [ %17, %15 ], [ %31, %24 ]
  %37 = add nsw i32 %36, 1
  %38 = add nuw nsw i64 %16, 1
  %39 = load i32, i32* %3, align 4, !tbaa !5
  %40 = sext i32 %39 to i64
  %41 = icmp slt i64 %38, %40
  br i1 %41, label %15, label %10, !llvm.loop !11

42:                                               ; preds = %12, %50
  %43 = phi i64 [ 1, %12 ], [ %51, %50 ]
  %44 = getelementptr inbounds [20000 x i32], [20000 x i32]* %2, i64 0, i64 %43
  %45 = load i32, i32* %44, align 4, !tbaa !5
  %46 = call i32 (i8*, ...) @printf(i8* nonnull dereferenceable(1) getelementptr inbounds ([3 x i8], [3 x i8]* @.str, i64 0, i64 0), i32 %45)
  %47 = icmp eq i64 %43, %13
  br i1 %47, label %50, label %48

48:                                               ; preds = %42
  %49 = call i32 @putchar(i32 32)
  br label %50

50:                                               ; preds = %42, %48
  %51 = add nuw nsw i64 %43, 1
  %52 = icmp eq i64 %51, %14
  br i1 %52, label %53, label %42, !llvm.loop !12

53:                                               ; preds = %50, %0, %10
  call void @llvm.lifetime.end.p0i8(i64 4, i8* nonnull %6) #4
  call void @llvm.lifetime.end.p0i8(i64 80000, i8* nonnull %5) #4
  call void @llvm.lifetime.end.p0i8(i64 80000, i8* nonnull %4) #4
  ret i32 0
}

; Function Attrs: argmemonly mustprogress nofree nosync nounwind willreturn
declare void @llvm.lifetime.start.p0i8(i64 immarg, i8* nocapture) #1

; Function Attrs: nofree nounwind
declare noundef i32 @__isoc99_scanf(i8* nocapture noundef readonly, ...) local_unnamed_addr #2

; Function Attrs: nofree nounwind
declare noundef i32 @printf(i8* nocapture noundef readonly, ...) local_unnamed_addr #2

; Function Attrs: argmemonly mustprogress nofree nosync nounwind willreturn
declare void @llvm.lifetime.end.p0i8(i64 immarg, i8* nocapture) #1

; Function Attrs: nofree nounwind
declare noundef i32 @putchar(i32 noundef) local_unnamed_addr #3


!llvm.module.flags = !{!0, !1, !2, !3}
!llvm.ident = !{!4}

!0 = !{i32 1, !"wchar_size", i32 4}
!1 = !{i32 7, !"PIC Level", i32 2}
!2 = !{i32 7, !"PIE Level", i32 2}
!3 = !{i32 7, !"uwtable", i32 1}
!4 = !{!"clang version 13.0.0"}
!5 = !{!6, !6, i64 0}
!6 = !{!"int", !7, i64 0}
!7 = !{!"omnipotent char", !8, i64 0}
!8 = !{!"Simple C/C++ TBAA"}
!9 = distinct !{!9, !10}
!10 = !{!"llvm.loop.mustprogress"}
!11 = distinct !{!11, !10}
!12 = distinct !{!12, !10}
